target datalayout = "e-m:e-p270:32:32-p271:32:32-p272:64:64-i64:64-i128:128-f80:128-n8:16:32:64-S128"
target triple = "x86_64-pc-linux-gnu"

%struct.AVFilterContext = type { ptr, ptr, ptr, ptr, ptr, i32, ptr, ptr, i32, ptr, ptr, i32, i32, ptr, ptr, ptr, ptr, i32, ptr, i32, i32 }
%struct.AudioDRCContext = type { ptr, double, double, ptr, double, double, i32, i32, i32, float, ptr, ptr, ptr, ptr, ptr, ptr, ptr, ptr, ptr, ptr, ptr, ptr, ptr, %struct.AVChannelLayout, ptr, ptr, ptr, ptr, ptr, [7 x double] }
%struct.AVChannelLayout = type { i32, i32, %union.anon.1, ptr }
%union.anon.1 = type { i64 }

; Function Attrs: cold nounwind optsize uwtable
define internal void @uninit(ptr noundef %0) #0 {
  %2 = alloca ptr, align 8
  %3 = alloca ptr, align 8
  %4 = alloca i32, align 4
  store ptr %0, ptr %2, align 8, !tbaa !4
  call void @llvm.lifetime.start.p0(i64 8, ptr %3) #10
  %5 = load ptr, ptr %2, align 8, !tbaa !4
  %6 = getelementptr inbounds nuw %struct.AVFilterContext, ptr %5, i32 0, i32 9
  %7 = load ptr, ptr %6, align 8, !tbaa !9
  store ptr %7, ptr %3, align 8, !tbaa !22
  %8 = load ptr, ptr %3, align 8, !tbaa !22
  %9 = getelementptr inbounds nuw %struct.AudioDRCContext, ptr %8, i32 0, i32 23
  call void @av_channel_layout_uninit(ptr noundef %9)
  %10 = load ptr, ptr %3, align 8, !tbaa !22
  %11 = getelementptr inbounds nuw %struct.AudioDRCContext, ptr %10, i32 0, i32 28
  %12 = load ptr, ptr %11, align 8, !tbaa !24
  call void @av_expr_free(ptr noundef %12)
  %13 = load ptr, ptr %3, align 8, !tbaa !22
  %14 = getelementptr inbounds nuw %struct.AudioDRCContext, ptr %13, i32 0, i32 28
  store ptr null, ptr %14, align 8, !tbaa !24
  %15 = load ptr, ptr %3, align 8, !tbaa !22
  %16 = getelementptr inbounds nuw %struct.AudioDRCContext, ptr %15, i32 0, i32 10
  call void @av_freep(ptr noundef %16)
  %17 = load ptr, ptr %3, align 8, !tbaa !22
  %18 = getelementptr inbounds nuw %struct.AudioDRCContext, ptr %17, i32 0, i32 11
  call void @av_frame_free(ptr noundef %18)
  %19 = load ptr, ptr %3, align 8, !tbaa !22
  %20 = getelementptr inbounds nuw %struct.AudioDRCContext, ptr %19, i32 0, i32 12
  call void @av_frame_free(ptr noundef %20)
  %21 = load ptr, ptr %3, align 8, !tbaa !22
  %22 = getelementptr inbounds nuw %struct.AudioDRCContext, ptr %21, i32 0, i32 13
  call void @av_frame_free(ptr noundef %22)
  %23 = load ptr, ptr %3, align 8, !tbaa !22
  %24 = getelementptr inbounds nuw %struct.AudioDRCContext, ptr %23, i32 0, i32 14
  call void @av_frame_free(ptr noundef %24)
  %25 = load ptr, ptr %3, align 8, !tbaa !22
  %26 = getelementptr inbounds nuw %struct.AudioDRCContext, ptr %25, i32 0, i32 16
  call void @av_frame_free(ptr noundef %26)
  %27 = load ptr, ptr %3, align 8, !tbaa !22
  %28 = getelementptr inbounds nuw %struct.AudioDRCContext, ptr %27, i32 0, i32 17
  call void @av_frame_free(ptr noundef %28)
  %29 = load ptr, ptr %3, align 8, !tbaa !22
  %30 = getelementptr inbounds nuw %struct.AudioDRCContext, ptr %29, i32 0, i32 18
  call void @av_frame_free(ptr noundef %30)
  %31 = load ptr, ptr %3, align 8, !tbaa !22
  %32 = getelementptr inbounds nuw %struct.AudioDRCContext, ptr %31, i32 0, i32 19
  call void @av_frame_free(ptr noundef %32)
  %33 = load ptr, ptr %3, align 8, !tbaa !22
  %34 = getelementptr inbounds nuw %struct.AudioDRCContext, ptr %33, i32 0, i32 20
  call void @av_frame_free(ptr noundef %34)
  %35 = load ptr, ptr %3, align 8, !tbaa !22
  %36 = getelementptr inbounds nuw %struct.AudioDRCContext, ptr %35, i32 0, i32 21
  call void @av_frame_free(ptr noundef %36)
  call void @llvm.lifetime.start.p0(i64 4, ptr %4) #10
  store i32 0, ptr %4, align 4, !tbaa !33
  br label %37

37:                                               ; preds = %69, %1
  %38 = load i32, ptr %4, align 4, !tbaa !33
  %39 = load ptr, ptr %3, align 8, !tbaa !22
  %40 = getelementptr inbounds nuw %struct.AudioDRCContext, ptr %39, i32 0, i32 8
  %41 = load i32, ptr %40, align 8, !tbaa !34
  %42 = icmp slt i32 %38, %41
  br i1 %42, label %44, label %43

43:                                               ; preds = %37
  call void @llvm.lifetime.end.p0(i64 4, ptr %4) #10
  br label %72

44:                                               ; preds = %37
  %45 = load ptr, ptr %3, align 8, !tbaa !22
  %46 = getelementptr inbounds nuw %struct.AudioDRCContext, ptr %45, i32 0, i32 24
  %47 = load ptr, ptr %46, align 8, !tbaa !35
  %48 = icmp ne ptr %47, null
  br i1 %48, label %49, label %56

49:                                               ; preds = %44
  %50 = load ptr, ptr %3, align 8, !tbaa !22
  %51 = getelementptr inbounds nuw %struct.AudioDRCContext, ptr %50, i32 0, i32 24
  %52 = load ptr, ptr %51, align 8, !tbaa !35
  %53 = load i32, ptr %4, align 4, !tbaa !33
  %54 = sext i32 %53 to i64
  %55 = getelementptr inbounds ptr, ptr %52, i64 %54
  call void @av_tx_uninit(ptr noundef %55)
  br label %56

56:                                               ; preds = %49, %44
  %57 = load ptr, ptr %3, align 8, !tbaa !22
  %58 = getelementptr inbounds nuw %struct.AudioDRCContext, ptr %57, i32 0, i32 26
  %59 = load ptr, ptr %58, align 8, !tbaa !36
  %60 = icmp ne ptr %59, null
  br i1 %60, label %61, label %68

61:                                               ; preds = %56
  %62 = load ptr, ptr %3, align 8, !tbaa !22
  %63 = getelementptr inbounds nuw %struct.AudioDRCContext, ptr %62, i32 0, i32 26
  %64 = load ptr, ptr %63, align 8, !tbaa !36
  %65 = load i32, ptr %4, align 4, !tbaa !33
  %66 = sext i32 %65 to i64
  %67 = getelementptr inbounds ptr, ptr %64, i64 %66
  call void @av_tx_uninit(ptr noundef %67)
  br label %68

68:                                               ; preds = %61, %56
  br label %69

69:                                               ; preds = %68
  %70 = load i32, ptr %4, align 4, !tbaa !33
  %71 = add nsw i32 %70, 1
  store i32 %71, ptr %4, align 4, !tbaa !33
  br label %37, !llvm.loop !37

72:                                               ; preds = %43
  %73 = load ptr, ptr %3, align 8, !tbaa !22
  %74 = getelementptr inbounds nuw %struct.AudioDRCContext, ptr %73, i32 0, i32 24
  call void @av_freep(ptr noundef %74)
  %75 = load ptr, ptr %3, align 8, !tbaa !22
  %76 = getelementptr inbounds nuw %struct.AudioDRCContext, ptr %75, i32 0, i32 26
  call void @av_freep(ptr noundef %76)
  call void @llvm.lifetime.end.p0(i64 8, ptr %3) #10
  ret void
}