; Function Attrs: cold nounwind optsize uwtable
define internal void @uninit(ptr noundef readonly captures(none) %0) #0 {
  %2 = getelementptr inbounds nuw i8, ptr %0, i64 72
  %3 = load ptr, ptr %2, align 8, !tbaa !4
  %4 = getelementptr inbounds nuw i8, ptr %3, i64 168
  tail call void @av_channel_layout_uninit(ptr noundef nonnull %4) #10
  %5 = getelementptr inbounds nuw i8, ptr %3, i64 224
  %6 = load ptr, ptr %5, align 8, !tbaa !20
  tail call void @av_expr_free(ptr noundef %6) #10
  store ptr null, ptr %5, align 8, !tbaa !20
  %7 = getelementptr inbounds nuw i8, ptr %3, i64 64
  tail call void @av_freep(ptr noundef nonnull %7) #10
  %8 = getelementptr inbounds nuw i8, ptr %3, i64 72
  tail call void @av_frame_free(ptr noundef nonnull %8) #10
  %9 = getelementptr inbounds nuw i8, ptr %3, i64 80
  tail call void @av_frame_free(ptr noundef nonnull %9) #10
  %10 = getelementptr inbounds nuw i8, ptr %3, i64 88
  tail call void @av_frame_free(ptr noundef nonnull %10) #10
  %11 = getelementptr inbounds nuw i8, ptr %3, i64 96
  tail call void @av_frame_free(ptr noundef nonnull %11) #10
  %12 = getelementptr inbounds nuw i8, ptr %3, i64 112
  tail call void @av_frame_free(ptr noundef nonnull %12) #10
  %13 = getelementptr inbounds nuw i8, ptr %3, i64 120
  tail call void @av_frame_free(ptr noundef nonnull %13) #10
  %14 = getelementptr inbounds nuw i8, ptr %3, i64 128
  tail call void @av_frame_free(ptr noundef nonnull %14) #10
  %15 = getelementptr inbounds nuw i8, ptr %3, i64 136
  tail call void @av_frame_free(ptr noundef nonnull %15) #10
  %16 = getelementptr inbounds nuw i8, ptr %3, i64 144
  tail call void @av_frame_free(ptr noundef nonnull %16) #10
  %17 = getelementptr inbounds nuw i8, ptr %3, i64 152
  tail call void @av_frame_free(ptr noundef nonnull %17) #10
  %18 = getelementptr inbounds nuw i8, ptr %3, i64 56
  %19 = load i32, ptr %18, align 8, !tbaa !29
  %20 = icmp sgt i32 %19, 0
  br i1 %20, label %.lr.ph, label %._crit_edge

.lr.ph:                                           ; preds = %1
  %21 = getelementptr inbounds nuw i8, ptr %3, i64 192
  %22 = getelementptr inbounds nuw i8, ptr %3, i64 208
  br label %25

._crit_edge:                                      ; preds = %33, %1
  %23 = getelementptr inbounds nuw i8, ptr %3, i64 192
  tail call void @av_freep(ptr noundef nonnull %23) #10
  %24 = getelementptr inbounds nuw i8, ptr %3, i64 208
  tail call void @av_freep(ptr noundef nonnull %24) #10
  ret void

25:                                               ; preds = %.lr.ph, %33
  %indvars.iv = phi i64 [ 0, %.lr.ph ], [ %indvars.iv.next, %33 ]
  %26 = load ptr, ptr %21, align 8, !tbaa !30
  %.not = icmp eq ptr %26, null
  br i1 %.not, label %29, label %27

27:                                               ; preds = %25
  %28 = getelementptr inbounds nuw ptr, ptr %26, i64 %indvars.iv
  tail call void @av_tx_uninit(ptr noundef nonnull %28) #10
  br label %29

29:                                               ; preds = %27, %25
  %30 = load ptr, ptr %22, align 8, !tbaa !31
  %.not27 = icmp eq ptr %30, null
  br i1 %.not27, label %33, label %31

31:                                               ; preds = %29
  %32 = getelementptr inbounds nuw ptr, ptr %30, i64 %indvars.iv
  tail call void @av_tx_uninit(ptr noundef nonnull %32) #10
  br label %33

33:                                               ; preds = %29, %31
  %indvars.iv.next = add nuw nsw i64 %indvars.iv, 1
  %34 = load i32, ptr %18, align 8, !tbaa !29
  %35 = sext i32 %34 to i64
  %36 = icmp slt i64 %indvars.iv.next, %35
  br i1 %36, label %25, label %._crit_edge, !llvm.loop !32
}